target datalayout = "e-m:e-p270:32:32-p271:32:32-p272:64:64-i64:64-i128:128-f80:128-n8:16:32:64-S128"
target triple = "x86_64-pc-linux-gnu"

%struct.pmix_object_t = type { %union.pthread_mutex_t, ptr, i32, %struct.pmix_tma }
%union.pthread_mutex_t = type { %struct.__pthread_mutex_s }
%struct.__pthread_mutex_s = type { i32, i32, i32, i32, i32, i16, i16, %struct.__pthread_internal_list }
%struct.__pthread_internal_list = type { ptr, ptr }
%struct.pmix_tma = type { ptr, ptr, ptr, ptr, ptr, ptr, ptr, ptr }
%struct.pmix_list_item_t = type { %struct.pmix_object_t, ptr, ptr, i32 }
%struct.prte_filem_raw_xfer_t = type { %struct.pmix_list_item_t, %struct.event, i32, ptr, i32, i8, ptr, ptr, i32, i32, i32, i32 }
%struct.event = type { %struct.event_callback, %union.anon.0, i32, ptr, %union.anon.2, i16, i16, %struct.timeval }
%struct.event_callback = type { %struct.anon, i16, i8, i8, %union.anon, ptr }
%struct.anon = type { ptr, ptr }
%union.anon = type { ptr }
%union.anon.0 = type { %struct.anon.1 }
%struct.anon.1 = type { ptr, ptr }
%union.anon.2 = type { %struct.anon.3 }
%struct.anon.3 = type { %struct.anon.4, %struct.timeval }
%struct.anon.4 = type { ptr, ptr }
%struct.timeval = type { i64, i64 }

; Function Attrs: nounwind uwtable
define internal void @xfer_construct(ptr noundef %0) #0 {
  %2 = alloca ptr, align 8
  store ptr %0, ptr %2, align 8, !tbaa !38
  %3 = load ptr, ptr %2, align 8, !tbaa !38
  %4 = getelementptr inbounds nuw %struct.prte_filem_raw_xfer_t, ptr %3, i32 0, i32 1
  call void @llvm.memset.p0.i64(ptr align 8 %4, i8 0, i64 128, i1 false)
  %5 = load ptr, ptr %2, align 8, !tbaa !38
  %6 = getelementptr inbounds nuw %struct.prte_filem_raw_xfer_t, ptr %5, i32 0, i32 2
  store i32 -1, ptr %6, align 8, !tbaa !89
  %7 = load ptr, ptr %2, align 8, !tbaa !38
  %8 = getelementptr inbounds nuw %struct.prte_filem_raw_xfer_t, ptr %7, i32 0, i32 3
  store ptr null, ptr %8, align 8, !tbaa !94
  %9 = load ptr, ptr %2, align 8, !tbaa !38
  %10 = getelementptr inbounds nuw %struct.prte_filem_raw_xfer_t, ptr %9, i32 0, i32 4
  store i32 0, ptr %10, align 8, !tbaa !93
  %11 = load ptr, ptr %2, align 8, !tbaa !38
  %12 = getelementptr inbounds nuw %struct.prte_filem_raw_xfer_t, ptr %11, i32 0, i32 5
  store i8 0, ptr %12, align 4, !tbaa !115
  %13 = load ptr, ptr %2, align 8, !tbaa !38
  %14 = getelementptr inbounds nuw %struct.prte_filem_raw_xfer_t, ptr %13, i32 0, i32 6
  store ptr null, ptr %14, align 8, !tbaa !74
  %15 = load ptr, ptr %2, align 8, !tbaa !38
  %16 = getelementptr inbounds nuw %struct.prte_filem_raw_xfer_t, ptr %15, i32 0, i32 7
  store ptr null, ptr %16, align 8, !tbaa !90
  %17 = load ptr, ptr %2, align 8, !tbaa !38
  %18 = getelementptr inbounds nuw %struct.prte_filem_raw_xfer_t, ptr %17, i32 0, i32 9
  store i32 0, ptr %18, align 4, !tbaa !116
  %19 = load ptr, ptr %2, align 8, !tbaa !38
  %20 = getelementptr inbounds nuw %struct.prte_filem_raw_xfer_t, ptr %19, i32 0, i32 10
  store i32 0, ptr %20, align 8, !tbaa !117
  %21 = load ptr, ptr %2, align 8, !tbaa !38
  %22 = getelementptr inbounds nuw %struct.prte_filem_raw_xfer_t, ptr %21, i32 0, i32 11
  store i32 0, ptr %22, align 4, !tbaa !118
  ret void
}