; Function Attrs: mustprogress nofree norecurse nosync nounwind willreturn memory(argmem: write) uwtable
define internal void @xfer_construct(ptr noundef writeonly captures(none) initializes((144, 276), (280, 293), (296, 312), (316, 328)) %0) #2 {
  %2 = getelementptr inbounds nuw i8, ptr %0, i64 144
  tail call void @llvm.memset.p0.i64(ptr noundef nonnull align 8 dereferenceable(128) %2, i8 0, i64 128, i1 false)
  %3 = getelementptr inbounds nuw i8, ptr %0, i64 272
  store i32 -1, ptr %3, align 8, !tbaa !92
  %4 = getelementptr inbounds nuw i8, ptr %0, i64 280
  store ptr null, ptr %4, align 8, !tbaa !97
  %5 = getelementptr inbounds nuw i8, ptr %0, i64 288
  store i32 0, ptr %5, align 8, !tbaa !96
  %6 = getelementptr inbounds nuw i8, ptr %0, i64 292
  store i8 0, ptr %6, align 4, !tbaa !117
  %7 = getelementptr inbounds nuw i8, ptr %0, i64 296
  %8 = getelementptr inbounds nuw i8, ptr %0, i64 316
  store i32 0, ptr %8, align 4, !tbaa !118
  %9 = getelementptr inbounds nuw i8, ptr %0, i64 320
  store i32 0, ptr %9, align 8, !tbaa !119
  %10 = getelementptr inbounds nuw i8, ptr %0, i64 324
  store i32 0, ptr %10, align 4, !tbaa !120
  tail call void @llvm.memset.p0.i64(ptr noundef nonnull align 8 dereferenceable(16) %7, i8 0, i64 16, i1 false)
  ret void
}